; Function Attrs: nounwind uwtable
define hidden zeroext i1 @SDL_GetJoystickBall_REAL(ptr noundef %0, i32 noundef %1, ptr noundef writeonly captures(address_is_null) %2, ptr noundef writeonly captures(address_is_null) %3) local_unnamed_addr #1 {
  %5 = tail call i32 @SDL_AddAtomicInt_REAL(ptr noundef nonnull @SDL_joystick_lock_pending, i32 noundef 1) #13
  %6 = load ptr, ptr @SDL_joystick_lock, align 8
  tail call void @SDL_LockMutex_REAL(ptr noundef %6) #13
  %7 = tail call i32 @SDL_AddAtomicInt_REAL(ptr noundef nonnull @SDL_joystick_lock_pending, i32 noundef -1) #13
  %8 = load i32, ptr @SDL_joysticks_locked, align 4
  %9 = add nsw i32 %8, 1
  store i32 %9, ptr @SDL_joysticks_locked, align 4
  %10 = tail call zeroext i1 @SDL_ObjectValid(ptr noundef %0, i32 noundef 4) #13
  br i1 %10, label %23, label %11

11:                                               ; preds = %4
  %12 = tail call zeroext i1 (ptr, ...) @SDL_SetError_REAL(ptr noundef nonnull @.str.2, ptr noundef nonnull @.str.3) #13
  %13 = load i32, ptr @SDL_joysticks_locked, align 4
  %14 = add nsw i32 %13, -1
  store i32 %14, ptr @SDL_joysticks_locked, align 4
  %.b4.i = load i1, ptr @SDL_joysticks_initialized, align 1
  %15 = icmp ne i32 %14, 0
  %or.cond.i = select i1 %.b4.i, i1 true, i1 %15
  br i1 %or.cond.i, label %.critedge.i, label %16

16:                                               ; preds = %11
  %17 = tail call i32 @SDL_GetAtomicInt_REAL(ptr noundef nonnull @SDL_joystick_lock_pending) #13
  %18 = icmp eq i32 %17, 0
  br i1 %18, label %19, label %.critedge.i

19:                                               ; preds = %16
  %20 = load ptr, ptr @SDL_joystick_lock, align 8
  tail call void @SDL_LockMutex_REAL(ptr noundef %20) #13
  %21 = load ptr, ptr @SDL_joystick_lock, align 8
  tail call void @SDL_UnlockMutex_REAL(ptr noundef %21) #13
  store ptr null, ptr @SDL_joystick_lock, align 8
  tail call void @SDL_UnlockMutex_REAL(ptr noundef %20) #13
  tail call void @SDL_DestroyMutex_REAL(ptr noundef %20) #13
  br label %SDL_UnlockJoysticks_REAL.exit

.critedge.i:                                      ; preds = %16, %11
  %22 = load ptr, ptr @SDL_joystick_lock, align 8
  tail call void @SDL_UnlockMutex_REAL(ptr noundef %22) #13
  br label %SDL_UnlockJoysticks_REAL.exit

23:                                               ; preds = %4
  %24 = getelementptr inbounds nuw i8, ptr %0, i64 80
  %25 = load i32, ptr %24, align 8
  %26 = icmp slt i32 %1, %25
  br i1 %26, label %27, label %47

27:                                               ; preds = %23
  %.not = icmp eq ptr %2, null
  br i1 %.not, label %34, label %28

28:                                               ; preds = %27
  %29 = getelementptr inbounds nuw i8, ptr %0, i64 88
  %30 = load ptr, ptr %29, align 8
  %31 = sext i32 %1 to i64
  %32 = getelementptr inbounds %struct.SDL_JoystickBallData, ptr %30, i64 %31
  %33 = load i32, ptr %32, align 4
  store i32 %33, ptr %2, align 4
  br label %34

34:                                               ; preds = %28, %27
  %.not22 = icmp eq ptr %3, null
  br i1 %.not22, label %._crit_edge, label %35

._crit_edge:                                      ; preds = %34
  %.pre = sext i32 %1 to i64
  br label %41

35:                                               ; preds = %34
  %36 = getelementptr inbounds nuw i8, ptr %0, i64 88
  %37 = load ptr, ptr %36, align 8
  %38 = sext i32 %1 to i64
  %39 = getelementptr inbounds %struct.SDL_JoystickBallData, ptr %37, i64 %38, i32 1
  %40 = load i32, ptr %39, align 4
  store i32 %40, ptr %3, align 4
  br label %41

41:                                               ; preds = %._crit_edge, %35
  %.pre-phi = phi i64 [ %.pre, %._crit_edge ], [ %38, %35 ]
  %42 = getelementptr inbounds nuw i8, ptr %0, i64 88
  %43 = load ptr, ptr %42, align 8
  %44 = getelementptr inbounds %struct.SDL_JoystickBallData, ptr %43, i64 %.pre-phi
  store i32 0, ptr %44, align 4
  %45 = load ptr, ptr %42, align 8
  %46 = getelementptr inbounds %struct.SDL_JoystickBallData, ptr %45, i64 %.pre-phi, i32 1
  store i32 0, ptr %46, align 4
  br label %49

47:                                               ; preds = %23
  %48 = tail call zeroext i1 (ptr, ...) @SDL_SetError_REAL(ptr noundef nonnull @.str.7, i32 noundef %25) #13
  br label %49

49:                                               ; preds = %47, %41
  %.0 = phi i1 [ true, %41 ], [ %48, %47 ]
  %50 = load i32, ptr @SDL_joysticks_locked, align 4
  %51 = add nsw i32 %50, -1
  store i32 %51, ptr @SDL_joysticks_locked, align 4
  %.b4.i23 = load i1, ptr @SDL_joysticks_initialized, align 1
  %52 = icmp ne i32 %51, 0
  %or.cond.i24 = select i1 %.b4.i23, i1 true, i1 %52
  br i1 %or.cond.i24, label %.critedge.i25, label %53

53:                                               ; preds = %49
  %54 = tail call i32 @SDL_GetAtomicInt_REAL(ptr noundef nonnull @SDL_joystick_lock_pending) #13
  %55 = icmp eq i32 %54, 0
  br i1 %55, label %56, label %.critedge.i25

56:                                               ; preds = %53
  %57 = load ptr, ptr @SDL_joystick_lock, align 8
  tail call void @SDL_LockMutex_REAL(ptr noundef %57) #13
  %58 = load ptr, ptr @SDL_joystick_lock, align 8
  tail call void @SDL_UnlockMutex_REAL(ptr noundef %58) #13
  store ptr null, ptr @SDL_joystick_lock, align 8
  tail call void @SDL_UnlockMutex_REAL(ptr noundef %57) #13
  tail call void @SDL_DestroyMutex_REAL(ptr noundef %57) #13
  br label %SDL_UnlockJoysticks_REAL.exit

.critedge.i25:                                    ; preds = %53, %49
  %59 = load ptr, ptr @SDL_joystick_lock, align 8
  tail call void @SDL_UnlockMutex_REAL(ptr noundef %59) #13
  br label %SDL_UnlockJoysticks_REAL.exit

SDL_UnlockJoysticks_REAL.exit:                    ; preds = %.critedge.i25, %56, %.critedge.i, %19
  %.017 = phi i1 [ false, %19 ], [ false, %.critedge.i ], [ %.0, %56 ], [ %.0, %.critedge.i25 ]
  ret i1 %.017
}